; ModuleID = '24/46.c'
source_filename = "24/46.c"
target datalayout = "e-m:e-p270:32:32-p271:32:32-p272:64:64-i64:64-f80:128-n8:16:32:64-S128"
target triple = "x86_64-pc-linux-gnu"

@.str = private unnamed_addr constant [2 x i8] c"\0A\00", align 1

; Function Attrs: noinline nounwind uwtable
define dso_local i32 @main() #0 {
  %1 = alloca i32, align 4
  %2 = alloca i32, align 4
  %3 = alloca i32, align 4
  %4 = alloca i32, align 4
  %5 = alloca i32, align 4
  %6 = alloca i32, align 4
  %7 = alloca i32, align 4
  %8 = alloca i32, align 4
  %9 = alloca i32, align 4
  %10 = alloca [500 x i8], align 16
  %11 = alloca [50 x [50 x i8]], align 16
  store i32 0, i32* %1, align 4
  %12 = getelementptr inbounds [500 x i8], [500 x i8]* %10, i64 0, i64 0
  %13 = call i32 (i8*, ...) bitcast (i32 (...)* @gets to i32 (i8*, ...)*)(i8* %12)
  store i32 0, i32* %2, align 4
  store i32 0, i32* %3, align 4
  store i32 0, i32* %5, align 4
  br label %14

14:                                               ; preds = %69, %0
  %15 = load i32, i32* %2, align 4
  %16 = icmp slt i32 %15, 500
  br i1 %16, label %17, label %72

17:                                               ; preds = %14
  %18 = load i32, i32* %2, align 4
  %19 = sext i32 %18 to i64
  %20 = getelementptr inbounds [500 x i8], [500 x i8]* %10, i64 0, i64 %19
  %21 = load i8, i8* %20, align 1
  %22 = sext i8 %21 to i32
  %23 = icmp ne i32 %22, 32
  br i1 %23, label %24, label %44

24:                                               ; preds = %17
  %25 = load i32, i32* %2, align 4
  %26 = sext i32 %25 to i64
  %27 = getelementptr inbounds [500 x i8], [500 x i8]* %10, i64 0, i64 %26
  %28 = load i8, i8* %27, align 1
  %29 = sext i8 %28 to i32
  %30 = icmp ne i32 %29, 0
  br i1 %30, label %31, label %44

31:                                               ; preds = %24
  %32 = load i32, i32* %2, align 4
  %33 = sext i32 %32 to i64
  %34 = getelementptr inbounds [500 x i8], [500 x i8]* %10, i64 0, i64 %33
  %35 = load i8, i8* %34, align 1
  %36 = load i32, i32* %3, align 4
  %37 = sext i32 %36 to i64
  %38 = getelementptr inbounds [50 x [50 x i8]], [50 x [50 x i8]]* %11, i64 0, i64 %37
  %39 = load i32, i32* %5, align 4
  %40 = sext i32 %39 to i64
  %41 = getelementptr inbounds [50 x i8], [50 x i8]* %38, i64 0, i64 %40
  store i8 %35, i8* %41, align 1
  %42 = load i32, i32* %5, align 4
  %43 = add nsw i32 %42, 1
  store i32 %43, i32* %5, align 4
  br label %68

44:                                               ; preds = %24, %17
  %45 = load i32, i32* %2, align 4
  %46 = sext i32 %45 to i64
  %47 = getelementptr inbounds [500 x i8], [500 x i8]* %10, i64 0, i64 %46
  %48 = load i8, i8* %47, align 1
  %49 = sext i8 %48 to i32
  %50 = icmp eq i32 %49, 32
  br i1 %50, label %51, label %60

51:                                               ; preds = %44
  %52 = load i32, i32* %3, align 4
  %53 = sext i32 %52 to i64
  %54 = getelementptr inbounds [50 x [50 x i8]], [50 x [50 x i8]]* %11, i64 0, i64 %53
  %55 = load i32, i32* %5, align 4
  %56 = sext i32 %55 to i64
  %57 = getelementptr inbounds [50 x i8], [50 x i8]* %54, i64 0, i64 %56
  store i8 0, i8* %57, align 1
  %58 = load i32, i32* %3, align 4
  %59 = add nsw i32 %58, 1
  store i32 %59, i32* %3, align 4
  store i32 0, i32* %5, align 4
  br label %67

60:                                               ; preds = %44
  %61 = load i32, i32* %3, align 4
  %62 = sext i32 %61 to i64
  %63 = getelementptr inbounds [50 x [50 x i8]], [50 x [50 x i8]]* %11, i64 0, i64 %62
  %64 = load i32, i32* %5, align 4
  %65 = sext i32 %64 to i64
  %66 = getelementptr inbounds [50 x i8], [50 x i8]* %63, i64 0, i64 %65
  store i8 0, i8* %66, align 1
  br label %72

67:                                               ; preds = %51
  br label %68

68:                                               ; preds = %67, %31
  br label %69

69:                                               ; preds = %68
  %70 = load i32, i32* %2, align 4
  %71 = add nsw i32 %70, 1
  store i32 %71, i32* %2, align 4
  br label %14

72:                                               ; preds = %60, %14
  store i32 0, i32* %8, align 4
  store i32 0, i32* %9, align 4
  %73 = getelementptr inbounds [50 x [50 x i8]], [50 x [50 x i8]]* %11, i64 0, i64 0
  %74 = getelementptr inbounds [50 x i8], [50 x i8]* %73, i64 0, i64 0
  %75 = call i64 @strlen(i8* %74) #3
  %76 = trunc i64 %75 to i32
  store i32 %76, i32* %6, align 4
  %77 = getelementptr inbounds [50 x [50 x i8]], [50 x [50 x i8]]* %11, i64 0, i64 0
  %78 = getelementptr inbounds [50 x i8], [50 x i8]* %77, i64 0, i64 0
  %79 = call i64 @strlen(i8* %78) #3
  %80 = trunc i64 %79 to i32
  store i32 %80, i32* %7, align 4
  store i32 1, i32* %2, align 4
  br label %81

81:                                               ; preds = %106, %72
  %82 = load i32, i32* %2, align 4
  %83 = load i32, i32* %3, align 4
  %84 = icmp sle i32 %82, %83
  br i1 %84, label %85, label %109

85:                                               ; preds = %81
  %86 = load i32, i32* %2, align 4
  %87 = sext i32 %86 to i64
  %88 = getelementptr inbounds [50 x [50 x i8]], [50 x [50 x i8]]* %11, i64 0, i64 %87
  %89 = getelementptr inbounds [50 x i8], [50 x i8]* %88, i64 0, i64 0
  %90 = call i64 @strlen(i8* %89) #3
  %91 = trunc i64 %90 to i32
  store i32 %91, i32* %4, align 4
  %92 = load i32, i32* %4, align 4
  %93 = load i32, i32* %7, align 4
  %94 = icmp slt i32 %92, %93
  br i1 %94, label %95, label %98

95:                                               ; preds = %85
  %96 = load i32, i32* %4, align 4
  store i32 %96, i32* %7, align 4
  %97 = load i32, i32* %2, align 4
  store i32 %97, i32* %9, align 4
  br label %98

98:                                               ; preds = %95, %85
  %99 = load i32, i32* %4, align 4
  %100 = load i32, i32* %6, align 4
  %101 = icmp sgt i32 %99, %100
  br i1 %101, label %102, label %105

102:                                              ; preds = %98
  %103 = load i32, i32* %4, align 4
  store i32 %103, i32* %6, align 4
  %104 = load i32, i32* %2, align 4
  store i32 %104, i32* %8, align 4
  br label %105

105:                                              ; preds = %102, %98
  br label %106

106:                                              ; preds = %105
  %107 = load i32, i32* %2, align 4
  %108 = add nsw i32 %107, 1
  store i32 %108, i32* %2, align 4
  br label %81

109:                                              ; preds = %81
  %110 = load i32, i32* %8, align 4
  %111 = sext i32 %110 to i64
  %112 = getelementptr inbounds [50 x [50 x i8]], [50 x [50 x i8]]* %11, i64 0, i64 %111
  %113 = getelementptr inbounds [50 x i8], [50 x i8]* %112, i64 0, i64 0
  %114 = call i32 @puts(i8* %113)
  %115 = call i32 (i8*, ...) @__isoc99_scanf(i8* getelementptr inbounds ([2 x i8], [2 x i8]* @.str, i64 0, i64 0))
  %116 = load i32, i32* %9, align 4
  %117 = sext i32 %116 to i64
  %118 = getelementptr inbounds [50 x [50 x i8]], [50 x [50 x i8]]* %11, i64 0, i64 %117
  %119 = getelementptr inbounds [50 x i8], [50 x i8]* %118, i64 0, i64 0
  %120 = call i32 @puts(i8* %119)
  %121 = call i32 (i8*, ...) @__isoc99_scanf(i8* getelementptr inbounds ([2 x i8], [2 x i8]* @.str, i64 0, i64 0))
  ret i32 0
}

declare dso_local i32 @gets(...) #1

; Function Attrs: nounwind readonly
declare dso_local i64 @strlen(i8*) #2

declare dso_local i32 @puts(i8*) #1

declare dso_local i32 @__isoc99_scanf(i8*, ...) #1


!llvm.module.flags = !{!0}
!llvm.ident = !{!1}

!0 = !{i32 1, !"wchar_size", i32 4}
!1 = !{!"clang version 10.0.0-4ubuntu1 "}
